target datalayout = "e-m:e-p270:32:32-p271:32:32-p272:64:64-i64:64-i128:128-f80:128-n8:16:32:64-S128"
target triple = "x86_64-pc-linux-gnu"

@.str.2 = private unnamed_addr constant [30 x i8] c"in function table_is_an_array\00", align 1

; Function Attrs: nounwind uwtable
define dso_local i32 @table_is_an_array(ptr noundef %0) #0 {
  %2 = alloca i32, align 4
  %3 = alloca ptr, align 8
  %4 = alloca i32, align 4
  %5 = alloca i32, align 4
  %6 = alloca double, align 8
  %7 = alloca i32, align 4
  %8 = alloca i32, align 4
  store ptr %0, ptr %3, align 8, !tbaa !17
  call void @llvm.lifetime.start.p0(i64 4, ptr %4) #6
  store i32 0, ptr %4, align 4, !tbaa !12
  call void @llvm.lifetime.start.p0(i64 4, ptr %5) #6
  store i32 0, ptr %5, align 4, !tbaa !12
  call void @llvm.lifetime.start.p0(i64 8, ptr %6) #6
  call void @llvm.lifetime.start.p0(i64 4, ptr %7) #6
  %9 = load ptr, ptr %3, align 8, !tbaa !17
  %10 = call i32 @lua_gettop(ptr noundef %9)
  store i32 %10, ptr %7, align 4, !tbaa !12
  %11 = load ptr, ptr %3, align 8, !tbaa !17
  call void @luaL_checkstack(ptr noundef %11, i32 noundef 2, ptr noundef @.str.2)
  %12 = load ptr, ptr %3, align 8, !tbaa !17
  call void @lua_pushnil(ptr noundef %12)
  br label %13

13:                                               ; preds = %54, %1
  %14 = load ptr, ptr %3, align 8, !tbaa !17
  %15 = call i32 @lua_next(ptr noundef %14, i32 noundef -2)
  %16 = icmp ne i32 %15, 0
  br i1 %16, label %17, label %59

17:                                               ; preds = %13
  %18 = load ptr, ptr %3, align 8, !tbaa !17
  call void @lua_settop(ptr noundef %18, i32 noundef -2)
  %19 = load ptr, ptr %3, align 8, !tbaa !17
  %20 = call i32 @lua_type(ptr noundef %19, i32 noundef -1)
  %21 = icmp ne i32 3, %20
  br i1 %21, label %41, label %22

22:                                               ; preds = %17
  %23 = load ptr, ptr %3, align 8, !tbaa !17
  %24 = call double @lua_tonumber(ptr noundef %23, i32 noundef -1)
  store double %24, ptr %6, align 8, !tbaa !31
  %25 = fcmp ole double %24, 0.000000e+00
  br i1 %25, label %41, label %26

26:                                               ; preds = %22
  %27 = load double, ptr %6, align 8, !tbaa !31
  %28 = call double @llvm.fabs.f64(double %27) #8
  %29 = fcmp oeq double %28, 0x7FF0000000000000
  %30 = bitcast double %27 to i64
  %31 = icmp slt i64 %30, 0
  %32 = select i1 %31, i32 -1, i32 1
  %33 = select i1 %29, i32 %32, i32 0
  %34 = icmp ne i32 %33, 0
  br i1 %34, label %41, label %35

35:                                               ; preds = %26
  %36 = load double, ptr %6, align 8, !tbaa !31
  %37 = fptosi double %36 to i32
  %38 = sitofp i32 %37 to double
  %39 = load double, ptr %6, align 8, !tbaa !31
  %40 = fcmp oeq double %38, %39
  br i1 %40, label %44, label %41

41:                                               ; preds = %35, %26, %22, %17
  %42 = load ptr, ptr %3, align 8, !tbaa !17
  %43 = load i32, ptr %7, align 4, !tbaa !12
  call void @lua_settop(ptr noundef %42, i32 noundef %43)
  store i32 0, ptr %2, align 4
  store i32 1, ptr %8, align 4
  br label %66

44:                                               ; preds = %35
  %45 = load double, ptr %6, align 8, !tbaa !31
  %46 = load i32, ptr %5, align 4, !tbaa !12
  %47 = sitofp i32 %46 to double
  %48 = fcmp ogt double %45, %47
  br i1 %48, label %49, label %51

49:                                               ; preds = %44
  %50 = load double, ptr %6, align 8, !tbaa !31
  br label %54

51:                                               ; preds = %44
  %52 = load i32, ptr %5, align 4, !tbaa !12
  %53 = sitofp i32 %52 to double
  br label %54

54:                                               ; preds = %51, %49
  %55 = phi double [ %50, %49 ], [ %53, %51 ]
  %56 = fptosi double %55 to i32
  store i32 %56, ptr %5, align 4, !tbaa !12
  %57 = load i32, ptr %4, align 4, !tbaa !12
  %58 = add nsw i32 %57, 1
  store i32 %58, ptr %4, align 4, !tbaa !12
  br label %13, !llvm.loop !38

59:                                               ; preds = %13
  %60 = load ptr, ptr %3, align 8, !tbaa !17
  %61 = load i32, ptr %7, align 4, !tbaa !12
  call void @lua_settop(ptr noundef %60, i32 noundef %61)
  %62 = load i32, ptr %5, align 4, !tbaa !12
  %63 = load i32, ptr %4, align 4, !tbaa !12
  %64 = icmp eq i32 %62, %63
  %65 = zext i1 %64 to i32
  store i32 %65, ptr %2, align 4
  store i32 1, ptr %8, align 4
  br label %66

66:                                               ; preds = %59, %41
  call void @llvm.lifetime.end.p0(i64 4, ptr %7) #6
  call void @llvm.lifetime.end.p0(i64 8, ptr %6) #6
  call void @llvm.lifetime.end.p0(i64 4, ptr %5) #6
  call void @llvm.lifetime.end.p0(i64 4, ptr %4) #6
  %67 = load i32, ptr %2, align 4
  ret i32 %67
}